; Function Attrs: mustprogress nounwind uwtable
define hidden noundef i32 @_ZN12WorkerPolicy19calc_active_workersEmmm(i64 noundef %0, i64 noundef %1, i64 noundef %2) local_unnamed_addr #0 align 2 {
  %4 = load i8, ptr @UseDynamicNumberOfGCThreads, align 1
  %5 = trunc i8 %4 to i1
  br i1 %5, label %6, label %_ZN12WorkerPolicy27calc_default_active_workersEmmmm.exit

6:                                                ; preds = %3
  %7 = tail call noundef zeroext i1 @_ZN7JVMFlag10is_defaultE12JVMFlagsEnum(i32 noundef 1092) #5
  br i1 %7, label %8, label %_ZN12WorkerPolicy27calc_default_active_workersEmmmm.exit

8:                                                ; preds = %6
  %9 = icmp eq i64 %0, 1
  %10 = select i1 %9, i64 1, i64 2
  %11 = shl i64 %2, 1
  %12 = tail call noundef i64 @llvm.umax.i64(i64 %11, i64 %10)
  %13 = load ptr, ptr @_ZN8Universe14_collectedHeapE, align 8
  %14 = load ptr, ptr %13, align 8
  %15 = getelementptr inbounds i8, ptr %14, i64 88
  %16 = load ptr, ptr %15, align 8
  %17 = tail call noundef i64 %16(ptr noundef nonnull align 8 dereferenceable(104) %13) #5
  %18 = load i64, ptr @HeapSizePerGCThread, align 8
  %19 = udiv i64 %17, %18
  %20 = tail call noundef i64 @llvm.umax.i64(i64 %19, i64 2)
  %21 = tail call noundef i64 @llvm.umax.i64(i64 %12, i64 %20)
  %22 = tail call noundef i64 @llvm.umin.i64(i64 %21, i64 %0)
  %23 = icmp ult i64 %22, %1
  br i1 %23, label %24, label %28

24:                                               ; preds = %8
  %25 = add i64 %22, %1
  %26 = lshr i64 %25, 1
  %27 = tail call noundef i64 @llvm.umax.i64(i64 %10, i64 %26)
  br label %28

28:                                               ; preds = %24, %8
  %.0.i = phi i64 [ %27, %24 ], [ %22, %8 ]
  %29 = load volatile ptr, ptr getelementptr inbounds (i8, ptr @_ZN16LogTagSetMappingILN6LogTag4typeE49ELS1_158ELS1_0ELS1_0ELS1_0ELS1_0EE7_tagsetE, i64 48), align 8
  %.not.i = icmp eq ptr %29, null
  br i1 %.not.i, label %_ZN12WorkerPolicy27calc_default_active_workersEmmmm.exit, label %30

30:                                               ; preds = %28
  tail call void (ptr, ...) @_ZN7LogImplILN6LogTag4typeE49ELS1_158ELS1_0ELS1_0ELS1_0ELS1_0EE5writeILN8LogLevel4typeE1EEEvPKcz(ptr noundef nonnull @.str, i64 noundef %1, i64 noundef %.0.i, i64 noundef %1, i64 noundef %12, i64 noundef %20)
  br label %_ZN12WorkerPolicy27calc_default_active_workersEmmmm.exit

_ZN12WorkerPolicy27calc_default_active_workersEmmmm.exit: ; preds = %30, %28, %3, %6
  %.0.in = phi i64 [ %0, %6 ], [ %0, %3 ], [ %.0.i, %28 ], [ %.0.i, %30 ]
  %.0 = trunc i64 %.0.in to i32
  ret i32 %.0
}